; Function Attrs: mustprogress uwtable
define void @_ZN2cv4gapi2ot3cpu7kernelsEv(ptr dead_on_unwind noalias nonnull writable sret(%"class.cv::GKernelPackage") align 8 %0) local_unnamed_addr #3 personality ptr @__gxx_personality_v0 {
  %2 = getelementptr inbounds nuw i8, ptr %0, i64 48
  store ptr %2, ptr %0, align 8, !tbaa !3, !alias.scope !15
  %3 = getelementptr inbounds nuw i8, ptr %0, i64 8
  store i64 1, ptr %3, align 8, !tbaa !18, !alias.scope !15
  %4 = getelementptr inbounds nuw i8, ptr %0, i64 16
  %5 = getelementptr inbounds nuw i8, ptr %0, i64 32
  tail call void @llvm.memset.p0.i64(ptr noundef nonnull align 8 dereferenceable(16) %4, i8 0, i64 16, i1 false), !alias.scope !15
  store float 1.000000e+00, ptr %5, align 8, !tbaa !19, !alias.scope !15
  %6 = getelementptr inbounds nuw i8, ptr %0, i64 40
  tail call void @llvm.memset.p0.i64(ptr noundef nonnull align 8 dereferenceable(40) %6, i8 0, i64 40, i1 false), !alias.scope !15
  invoke void @_ZN2cv14GKernelPackage13includeHelperINS_4gapi2ot19GTrackFromFrameImplEEENSt9enable_ifIXsr3std10is_base_ofINS_6detail9KernelTagET_EE5valueEvE4typeEv(ptr noundef nonnull align 8 dereferenceable(80) %0)
          to label %_ZN2cv14GKernelPackage7includeINS_4gapi2ot19GTrackFromFrameImplEEEvv.exit.i unwind label %7

_ZN2cv14GKernelPackage7includeINS_4gapi2ot19GTrackFromFrameImplEEEvv.exit.i: ; preds = %1
  invoke void @_ZN2cv14GKernelPackage13includeHelperINS_4gapi2ot17GTrackFromMatImplEEENSt9enable_ifIXsr3std10is_base_ofINS_6detail9KernelTagET_EE5valueEvE4typeEv(ptr noundef nonnull align 8 dereferenceable(80) %0)
          to label %_ZN2cv4gapi7kernelsIJNS0_2ot19GTrackFromFrameImplENS2_17GTrackFromMatImplEEEENS_14GKernelPackageEv.exit unwind label %7

7:                                                ; preds = %_ZN2cv14GKernelPackage7includeINS_4gapi2ot19GTrackFromFrameImplEEEvv.exit.i, %1
  %8 = landingpad { ptr, i32 }
          cleanup
  tail call void @_ZN2cv14GKernelPackageD2Ev(ptr noundef nonnull align 8 dereferenceable(80) %0) #25
  resume { ptr, i32 } %8

_ZN2cv4gapi7kernelsIJNS0_2ot19GTrackFromFrameImplENS2_17GTrackFromMatImplEEEENS_14GKernelPackageEv.exit: ; preds = %_ZN2cv14GKernelPackage7includeINS_4gapi2ot19GTrackFromFrameImplEEEvv.exit.i
  ret void
}